#include <math.h>
#include <stdio.h>
#include <stdlib.h>
#include <string.h>

void main(void)
{
	int a, k;
	scanf("%d", &a);
	while(a != 1)
		if(a % 2 == 1)
		{
			k = a;
			a = a * 3 + 1;
			printf("%d*3+1=%d\n",k,a);	
		}
		else
		{
			k = a;
			a = a / 2;
			printf("%d/2=%d\n",k ,a);
		}
	if(a == 1)
		printf("End\n");
			
}